; ModuleID = 'source-C-CXX/44/1822.c'
source_filename = "source-C-CXX/44/1822.c"
target datalayout = "e-m:e-p270:32:32-p271:32:32-p272:64:64-i64:64-f80:128-n8:16:32:64-S128"
target triple = "x86_64-pc-linux-gnu"

@.str = private unnamed_addr constant [5 x i8] c"%s%s\00", align 1
@.str.1 = private unnamed_addr constant [3 x i8] c"%d\00", align 1

; Function Attrs: nofree nounwind sspstrong uwtable
define dso_local i32 @main() local_unnamed_addr #0 {
  %1 = alloca [50 x i8], align 16
  %2 = alloca [50 x i8], align 16
  %3 = getelementptr inbounds [50 x i8], [50 x i8]* %1, i64 0, i64 0
  call void @llvm.lifetime.start.p0i8(i64 50, i8* nonnull %3) #5
  call void @llvm.memset.p0i8.i64(i8* noundef nonnull align 16 dereferenceable(50) %3, i8 0, i64 50, i1 false)
  store i8 10, i8* %3, align 16
  %4 = getelementptr inbounds [50 x i8], [50 x i8]* %2, i64 0, i64 0
  call void @llvm.lifetime.start.p0i8(i64 50, i8* nonnull %4) #5
  call void @llvm.memset.p0i8.i64(i8* noundef nonnull align 16 dereferenceable(50) %4, i8 0, i64 50, i1 false)
  store i8 10, i8* %4, align 16
  %5 = call i32 (i8*, ...) @__isoc99_scanf(i8* getelementptr inbounds ([5 x i8], [5 x i8]* @.str, i64 0, i64 0), i8* nonnull %3, i8* nonnull %4)
  %6 = call i64 @strlen(i8* noundef nonnull %4) #6
  %7 = load i8, i8* %3, align 16
  %8 = icmp eq i64 %6, 0
  br i1 %8, label %45, label %9

9:                                                ; preds = %0
  %10 = getelementptr inbounds [50 x i8], [50 x i8]* %1, i64 0, i64 0
  %11 = load i8, i8* %10, align 16
  %12 = icmp eq i8 %11, %7
  br label %13

13:                                               ; preds = %9, %42
  %14 = phi i64 [ %43, %42 ], [ 0, %9 ]
  %15 = getelementptr inbounds [50 x i8], [50 x i8]* %2, i64 0, i64 %14
  %16 = load i8, i8* %15, align 1, !tbaa !5
  %17 = icmp eq i8 %7, %16
  br i1 %17, label %18, label %42

18:                                               ; preds = %13
  %19 = call i64 @strlen(i8* noundef nonnull %3) #6
  %20 = icmp eq i64 %19, 0
  %21 = xor i1 %12, true
  %22 = select i1 %20, i1 true, i1 %21
  br i1 %22, label %35, label %23

23:                                               ; preds = %18, %29
  %24 = phi i64 [ %27, %29 ], [ %14, %18 ]
  %25 = phi i64 [ %26, %29 ], [ 0, %18 ]
  %26 = add nuw i64 %25, 1
  %27 = add nuw i64 %24, 1
  %28 = icmp eq i64 %26, %19
  br i1 %28, label %35, label %29, !llvm.loop !8

29:                                               ; preds = %23
  %30 = getelementptr inbounds [50 x i8], [50 x i8]* %2, i64 0, i64 %27
  %31 = load i8, i8* %30, align 1, !tbaa !5
  %32 = getelementptr inbounds [50 x i8], [50 x i8]* %1, i64 0, i64 %26
  %33 = load i8, i8* %32, align 1, !tbaa !5
  %34 = icmp eq i8 %33, %31
  br i1 %34, label %23, label %35

35:                                               ; preds = %29, %23, %18
  %36 = phi i64 [ 0, %18 ], [ %19, %23 ], [ %26, %29 ]
  %37 = and i64 %36, 4294967295
  %38 = icmp eq i64 %19, %37
  br i1 %38, label %39, label %42

39:                                               ; preds = %35
  %40 = trunc i64 %14 to i32
  %41 = call i32 (i8*, ...) @printf(i8* nonnull dereferenceable(1) getelementptr inbounds ([3 x i8], [3 x i8]* @.str.1, i64 0, i64 0), i32 %40)
  br label %45

42:                                               ; preds = %13, %35
  %43 = add nuw i64 %14, 1
  %44 = icmp eq i64 %43, %6
  br i1 %44, label %45, label %13, !llvm.loop !10

45:                                               ; preds = %42, %0, %39
  call void @llvm.lifetime.end.p0i8(i64 50, i8* nonnull %4) #5
  call void @llvm.lifetime.end.p0i8(i64 50, i8* nonnull %3) #5
  ret i32 0
}

; Function Attrs: argmemonly mustprogress nofree nosync nounwind willreturn
declare void @llvm.lifetime.start.p0i8(i64 immarg, i8* nocapture) #1

; Function Attrs: argmemonly mustprogress nofree nounwind willreturn writeonly
declare void @llvm.memset.p0i8.i64(i8* nocapture writeonly, i8, i64, i1 immarg) #2

; Function Attrs: nofree nounwind
declare noundef i32 @__isoc99_scanf(i8* nocapture noundef readonly, ...) local_unnamed_addr #3

; Function Attrs: argmemonly mustprogress nofree nounwind readonly willreturn
declare i64 @strlen(i8* nocapture) local_unnamed_addr #4

; Function Attrs: nofree nounwind
declare noundef i32 @printf(i8* nocapture noundef readonly, ...) local_unnamed_addr #3

; Function Attrs: argmemonly mustprogress nofree nosync nounwind willreturn
declare void @llvm.lifetime.end.p0i8(i64 immarg, i8* nocapture) #1


!llvm.module.flags = !{!0, !1, !2, !3}
!llvm.ident = !{!4}

!0 = !{i32 1, !"wchar_size", i32 4}
!1 = !{i32 7, !"PIC Level", i32 2}
!2 = !{i32 7, !"PIE Level", i32 2}
!3 = !{i32 7, !"uwtable", i32 1}
!4 = !{!"clang version 13.0.0"}
!5 = !{!6, !6, i64 0}
!6 = !{!"omnipotent char", !7, i64 0}
!7 = !{!"Simple C/C++ TBAA"}
!8 = distinct !{!8, !9}
!9 = !{!"llvm.loop.mustprogress"}
!10 = distinct !{!10, !9}
